; Function Attrs: mustprogress nofree norecurse nosync nounwind willreturn memory(argmem: readwrite) uwtable
define internal fastcc void @felem_mul(ptr noundef nonnull writeonly captures(none) initializes((0, 128)) %0, ptr noundef nonnull readonly captures(none) %1, ptr noundef nonnull readonly captures(none) %2) unnamed_addr #4 {
  %4 = alloca [4 x i64], align 16
  %5 = alloca [4 x i64], align 16
  call void @llvm.lifetime.start.p0(i64 32, ptr nonnull %4) #9
  call void @llvm.lifetime.start.p0(i64 32, ptr nonnull %5) #9
  %6 = getelementptr inbounds nuw i8, ptr %1, i64 48
  %7 = load i128, ptr %6, align 16, !tbaa !6
  %8 = add i128 %7, 18446744069414584320
  %9 = getelementptr inbounds nuw i8, ptr %1, i64 32
  %10 = load i128, ptr %9, align 16, !tbaa !6
  %11 = lshr i128 %10, 64
  %12 = add i128 %8, %11
  %13 = and i128 %10, 18446744073709551615
  %14 = add nuw nsw i128 %13, 18446673704965373952
  %15 = load i128, ptr %1, align 16, !tbaa !6
  %16 = add i128 %15, 18446744073709551615
  %17 = getelementptr inbounds nuw i8, ptr %1, i64 16
  %18 = load i128, ptr %17, align 16, !tbaa !6
  %19 = lshr i128 %12, 64
  %20 = trunc nuw i128 %19 to i64
  %21 = and i128 %12, 18446744073709551615
  %22 = sub nsw i128 %21, %19
  %23 = shl nuw nsw i128 %19, 32
  %24 = add nsw i128 %22, %23
  %25 = lshr i128 %24, 64
  %26 = trunc nuw i128 %25 to i64
  %27 = add i64 %26, %20
  %28 = and i128 %24, 18446744073709551615
  %29 = sub nsw i128 %28, %25
  %30 = shl nuw nsw i128 %25, 32
  %31 = add nsw i128 %29, %30
  %32 = zext i64 %27 to i128
  %33 = add i128 %16, %32
  %34 = lshr i128 %31, 64
  %35 = trunc nuw i128 %34 to i64
  %36 = sub i64 0, %35
  %37 = trunc i128 %31 to i64
  %38 = ashr i64 %37, 63
  %39 = and i64 %37, 9223372036854775807
  %40 = icmp samesign ugt i64 %39, 9223372032559808512
  %41 = select i1 %40, i64 %38, i64 0
  %42 = or i64 %41, %36
  %43 = zext i64 %42 to i128
  %44 = sub i128 %33, %43
  %45 = and i64 %42, 4294967295
  %46 = zext nneg i64 %45 to i128
  %47 = and i64 %42, -4294967295
  %48 = zext i64 %47 to i128
  %49 = sub nsw i128 %31, %48
  %50 = lshr i128 %44, 64
  %.neg7 = add i128 %18, 1298074214633706907132628377272319
  %51 = shl nuw nsw i128 %32, 32
  %52 = or disjoint i128 %51, %46
  %53 = sub i128 %.neg7, %52
  %54 = add i128 %53, %50
  %55 = trunc i128 %44 to i64
  %56 = lshr i128 %54, 64
  %57 = add nuw nsw i128 %14, %56
  %58 = trunc i128 %54 to i64
  %59 = lshr i128 %57, 64
  %60 = add nsw i128 %49, %59
  %61 = trunc i128 %57 to i64
  store i64 %55, ptr %4, align 16, !tbaa !18
  %62 = getelementptr inbounds nuw i8, ptr %4, i64 8
  store i64 %58, ptr %62, align 8, !tbaa !18
  %63 = getelementptr inbounds nuw i8, ptr %4, i64 16
  store i64 %61, ptr %63, align 16, !tbaa !18
  %64 = trunc i128 %60 to i64
  %65 = getelementptr inbounds nuw i8, ptr %4, i64 24
  store i64 %64, ptr %65, align 8, !tbaa !18
  %66 = getelementptr inbounds nuw i8, ptr %2, i64 48
  %67 = load i128, ptr %66, align 16, !tbaa !6
  %68 = add i128 %67, 18446744069414584320
  %69 = getelementptr inbounds nuw i8, ptr %2, i64 32
  %70 = load i128, ptr %69, align 16, !tbaa !6
  %71 = lshr i128 %70, 64
  %72 = add i128 %68, %71
  %73 = and i128 %70, 18446744073709551615
  %74 = add nuw nsw i128 %73, 18446673704965373952
  %75 = load i128, ptr %2, align 16, !tbaa !6
  %76 = add i128 %75, 18446744073709551615
  %77 = getelementptr inbounds nuw i8, ptr %2, i64 16
  %78 = load i128, ptr %77, align 16, !tbaa !6
  %79 = lshr i128 %72, 64
  %80 = trunc nuw i128 %79 to i64
  %81 = and i128 %72, 18446744073709551615
  %82 = sub nsw i128 %81, %79
  %83 = shl nuw nsw i128 %79, 32
  %84 = add nsw i128 %82, %83
  %85 = lshr i128 %84, 64
  %86 = trunc nuw i128 %85 to i64
  %87 = add i64 %86, %80
  %88 = and i128 %84, 18446744073709551615
  %89 = sub nsw i128 %88, %85
  %90 = shl nuw nsw i128 %85, 32
  %91 = add nsw i128 %89, %90
  %92 = zext i64 %87 to i128
  %93 = add i128 %76, %92
  %94 = lshr i128 %91, 64
  %95 = trunc nuw i128 %94 to i64
  %96 = sub i64 0, %95
  %97 = trunc i128 %91 to i64
  %98 = ashr i64 %97, 63
  %99 = and i64 %97, 9223372036854775807
  %100 = icmp samesign ugt i64 %99, 9223372032559808512
  %101 = select i1 %100, i64 %98, i64 0
  %102 = or i64 %101, %96
  %103 = zext i64 %102 to i128
  %104 = sub i128 %93, %103
  %105 = and i64 %102, 4294967295
  %106 = zext nneg i64 %105 to i128
  %107 = and i64 %102, -4294967295
  %108 = zext i64 %107 to i128
  %109 = sub nsw i128 %91, %108
  %110 = lshr i128 %104, 64
  %.neg12 = add i128 %78, 1298074214633706907132628377272319
  %111 = shl nuw nsw i128 %92, 32
  %112 = or disjoint i128 %111, %106
  %113 = sub i128 %.neg12, %112
  %114 = add i128 %113, %110
  %115 = trunc i128 %104 to i64
  %116 = lshr i128 %114, 64
  %117 = add nuw nsw i128 %74, %116
  %118 = trunc i128 %114 to i64
  %119 = lshr i128 %117, 64
  %120 = add nsw i128 %109, %119
  %121 = trunc i128 %117 to i64
  store i64 %115, ptr %5, align 16, !tbaa !18
  %122 = getelementptr inbounds nuw i8, ptr %5, i64 8
  store i64 %118, ptr %122, align 8, !tbaa !18
  %123 = getelementptr inbounds nuw i8, ptr %5, i64 16
  store i64 %121, ptr %123, align 16, !tbaa !18
  %124 = trunc i128 %120 to i64
  %125 = getelementptr inbounds nuw i8, ptr %5, i64 24
  store i64 %124, ptr %125, align 8, !tbaa !18
  call fastcc void @smallfelem_mul(ptr noundef %0, ptr noundef %4, ptr noundef %5)
  call void @llvm.lifetime.end.p0(i64 32, ptr nonnull %5) #9
  call void @llvm.lifetime.end.p0(i64 32, ptr nonnull %4) #9
  ret void
}